; Function Attrs: mustprogress nounwind uwtable
define internal void @_ZN4llvm18RegisterPassParserIN12_GLOBAL__N_119RVVRegisterRegAllocEED0Ev(ptr noundef nonnull align 8 dereferenceable(488) %0) unnamed_addr #0 align 2 {
  store ptr getelementptr inbounds inrange(-16, 40) (i8, ptr @_ZTVN4llvm18RegisterPassParserIN12_GLOBAL__N_119RVVRegisterRegAllocEEE, i64 16), ptr %0, align 8
  %2 = getelementptr inbounds i8, ptr %0, i64 8
  store ptr null, ptr getelementptr inbounds nuw (i8, ptr @_ZN4llvm20RegisterRegAllocBaseIN12_GLOBAL__N_119RVVRegisterRegAllocEE8RegistryE, i64 16), align 8
  store ptr getelementptr inbounds inrange(-16, 64) (i8, ptr @_ZTVN4llvm2cl6parserIPFPNS_12FunctionPassEvEEE, i64 16), ptr %2, align 8
  %3 = getelementptr inbounds i8, ptr %0, i64 24
  %4 = tail call noundef i64 @_ZNK4llvm15SmallVectorBaseIjE4sizeEv(ptr noundef nonnull align 8 dereferenceable(16) %3) #24
  %5 = load ptr, ptr %3, align 8
  %6 = getelementptr inbounds i8, ptr %0, i64 40
  %7 = icmp eq ptr %5, %6
  br i1 %7, label %_ZN4llvm18RegisterPassParserIN12_GLOBAL__N_119RVVRegisterRegAllocEED2Ev.exit, label %8

8:                                                ; preds = %1
  tail call void @free(ptr noundef %5) #24
  br label %_ZN4llvm18RegisterPassParserIN12_GLOBAL__N_119RVVRegisterRegAllocEED2Ev.exit

_ZN4llvm18RegisterPassParserIN12_GLOBAL__N_119RVVRegisterRegAllocEED2Ev.exit: ; preds = %1, %8
  tail call void @_ZdlPvm(ptr noundef nonnull %0, i64 noundef 488) #27
  ret void
}